target datalayout = "e-m:e-p270:32:32-p271:32:32-p272:64:64-i64:64-i128:128-f80:128-n8:16:32:64-S128"
target triple = "x86_64-pc-linux-gnu"

; Function Attrs: inlinehint nounwind sspstrong uwtable
define internal i64 @count_utf8_lead_bytes_with_word(ptr noundef %0) #3 {
  %2 = alloca ptr, align 8
  %3 = alloca i64, align 8
  store ptr %0, ptr %2, align 8, !tbaa !47
  call void @llvm.lifetime.start.p0(i64 8, ptr %3) #29
  %4 = load ptr, ptr %2, align 8, !tbaa !47
  %5 = load i64, ptr %4, align 8, !tbaa !7
  store i64 %5, ptr %3, align 8, !tbaa !7
  %6 = load i64, ptr %3, align 8, !tbaa !7
  %7 = lshr i64 %6, 6
  %8 = load i64, ptr %3, align 8, !tbaa !7
  %9 = xor i64 %8, -1
  %10 = lshr i64 %9, 7
  %11 = or i64 %7, %10
  store i64 %11, ptr %3, align 8, !tbaa !7
  %12 = load i64, ptr %3, align 8, !tbaa !7
  %13 = and i64 %12, 72340172838076673
  store i64 %13, ptr %3, align 8, !tbaa !7
  %14 = load i64, ptr %3, align 8, !tbaa !7
  %15 = lshr i64 %14, 8
  %16 = load i64, ptr %3, align 8, !tbaa !7
  %17 = add i64 %16, %15
  store i64 %17, ptr %3, align 8, !tbaa !7
  %18 = load i64, ptr %3, align 8, !tbaa !7
  %19 = lshr i64 %18, 16
  %20 = load i64, ptr %3, align 8, !tbaa !7
  %21 = add i64 %20, %19
  store i64 %21, ptr %3, align 8, !tbaa !7
  %22 = load i64, ptr %3, align 8, !tbaa !7
  %23 = lshr i64 %22, 32
  %24 = load i64, ptr %3, align 8, !tbaa !7
  %25 = add i64 %24, %23
  store i64 %25, ptr %3, align 8, !tbaa !7
  %26 = load i64, ptr %3, align 8, !tbaa !7
  %27 = and i64 %26, 15
  call void @llvm.lifetime.end.p0(i64 8, ptr %3) #29
  ret i64 %27
}

; Function Attrs: nounwind sspstrong uwtable
define internal ptr @str_utf8_nth(ptr noundef %0, ptr noundef %1, ptr noundef %2) #0 {
  %4 = alloca ptr, align 8
  %5 = alloca ptr, align 8
  %6 = alloca ptr, align 8
  %7 = alloca i64, align 8
  %8 = alloca ptr, align 8
  %9 = alloca ptr, align 8
  %10 = alloca i64, align 8
  store ptr %0, ptr %4, align 8, !tbaa !24
  store ptr %1, ptr %5, align 8, !tbaa !24
  store ptr %2, ptr %6, align 8, !tbaa !47
  call void @llvm.lifetime.start.p0(i64 8, ptr %7) #29
  %11 = load ptr, ptr %6, align 8, !tbaa !47
  %12 = load i64, ptr %11, align 8, !tbaa !7
  store i64 %12, ptr %7, align 8, !tbaa !7
  %13 = load ptr, ptr %5, align 8, !tbaa !24
  %14 = load ptr, ptr %4, align 8, !tbaa !24
  %15 = ptrtoint ptr %13 to i64
  %16 = ptrtoint ptr %14 to i64
  %17 = sub i64 %15, %16
  %18 = icmp slt i64 16, %17
  br i1 %18, label %19, label %67

19:                                               ; preds = %3
  %20 = load i64, ptr %7, align 8, !tbaa !7
  %21 = icmp slt i64 16, %20
  br i1 %21, label %22, label %67

22:                                               ; preds = %19
  call void @llvm.lifetime.start.p0(i64 8, ptr %8) #29
  call void @llvm.lifetime.start.p0(i64 8, ptr %9) #29
  call void @llvm.lifetime.start.p0(i64 8, ptr %10) #29
  store i64 7, ptr %10, align 8, !tbaa !7
  %23 = load ptr, ptr %4, align 8, !tbaa !24
  %24 = ptrtoint ptr %23 to i64
  %25 = add i64 %24, 7
  %26 = and i64 -8, %25
  %27 = inttoptr i64 %26 to ptr
  store ptr %27, ptr %8, align 8, !tbaa !47
  %28 = load ptr, ptr %5, align 8, !tbaa !24
  %29 = ptrtoint ptr %28 to i64
  %30 = and i64 -8, %29
  %31 = inttoptr i64 %30 to ptr
  store ptr %31, ptr %9, align 8, !tbaa !47
  br label %32

32:                                               ; preds = %45, %22
  %33 = load ptr, ptr %4, align 8, !tbaa !24
  %34 = load ptr, ptr %8, align 8, !tbaa !47
  %35 = icmp ult ptr %33, %34
  br i1 %35, label %36, label %48

36:                                               ; preds = %32
  %37 = load ptr, ptr %4, align 8, !tbaa !24
  %38 = load i8, ptr %37, align 1, !tbaa !14
  %39 = sext i8 %38 to i32
  %40 = and i32 %39, 192
  %41 = icmp ne i32 %40, 128
  br i1 %41, label %42, label %45

42:                                               ; preds = %36
  %43 = load i64, ptr %7, align 8, !tbaa !7
  %44 = add i64 %43, -1
  store i64 %44, ptr %7, align 8, !tbaa !7
  br label %45

45:                                               ; preds = %42, %36
  %46 = load ptr, ptr %4, align 8, !tbaa !24
  %47 = getelementptr i8, ptr %46, i32 1
  store ptr %47, ptr %4, align 8, !tbaa !24
  br label %32, !llvm.loop !93

48:                                               ; preds = %32
  br label %49

49:                                               ; preds = %63, %48
  %50 = load ptr, ptr %8, align 8, !tbaa !47
  %51 = call i64 @count_utf8_lead_bytes_with_word(ptr noundef %50)
  %52 = load i64, ptr %7, align 8, !tbaa !7
  %53 = sub i64 %52, %51
  store i64 %53, ptr %7, align 8, !tbaa !7
  %54 = load ptr, ptr %8, align 8, !tbaa !47
  %55 = getelementptr i64, ptr %54, i32 1
  store ptr %55, ptr %8, align 8, !tbaa !47
  br label %56

56:                                               ; preds = %49
  %57 = load ptr, ptr %8, align 8, !tbaa !47
  %58 = load ptr, ptr %9, align 8, !tbaa !47
  %59 = icmp ult ptr %57, %58
  br i1 %59, label %60, label %63

60:                                               ; preds = %56
  %61 = load i64, ptr %7, align 8, !tbaa !7
  %62 = icmp sle i64 8, %61
  br label %63

63:                                               ; preds = %60, %56
  %64 = phi i1 [ false, %56 ], [ %62, %60 ]
  br i1 %64, label %49, label %65, !llvm.loop !94

65:                                               ; preds = %63
  %66 = load ptr, ptr %8, align 8, !tbaa !47
  store ptr %66, ptr %4, align 8, !tbaa !24
  call void @llvm.lifetime.end.p0(i64 8, ptr %10) #29
  call void @llvm.lifetime.end.p0(i64 8, ptr %9) #29
  call void @llvm.lifetime.end.p0(i64 8, ptr %8) #29
  br label %67

67:                                               ; preds = %65, %19, %3
  br label %68

68:                                               ; preds = %85, %67
  %69 = load ptr, ptr %4, align 8, !tbaa !24
  %70 = load ptr, ptr %5, align 8, !tbaa !24
  %71 = icmp ult ptr %69, %70
  br i1 %71, label %72, label %88

72:                                               ; preds = %68
  %73 = load ptr, ptr %4, align 8, !tbaa !24
  %74 = load i8, ptr %73, align 1, !tbaa !14
  %75 = sext i8 %74 to i32
  %76 = and i32 %75, 192
  %77 = icmp ne i32 %76, 128
  br i1 %77, label %78, label %85

78:                                               ; preds = %72
  %79 = load i64, ptr %7, align 8, !tbaa !7
  %80 = icmp eq i64 %79, 0
  br i1 %80, label %81, label %82

81:                                               ; preds = %78
  br label %88

82:                                               ; preds = %78
  %83 = load i64, ptr %7, align 8, !tbaa !7
  %84 = add i64 %83, -1
  store i64 %84, ptr %7, align 8, !tbaa !7
  br label %85

85:                                               ; preds = %82, %72
  %86 = load ptr, ptr %4, align 8, !tbaa !24
  %87 = getelementptr i8, ptr %86, i32 1
  store ptr %87, ptr %4, align 8, !tbaa !24
  br label %68, !llvm.loop !95

88:                                               ; preds = %81, %68
  %89 = load i64, ptr %7, align 8, !tbaa !7
  %90 = load ptr, ptr %6, align 8, !tbaa !47
  store i64 %89, ptr %90, align 8, !tbaa !7
  %91 = load ptr, ptr %4, align 8, !tbaa !24
  call void @llvm.lifetime.end.p0(i64 8, ptr %7) #29
  ret ptr %91
}