; Function Attrs: nofree norecurse nosync nounwind sspstrong memory(read, argmem: readwrite, inaccessiblemem: none) uwtable
define internal fastcc ptr @str_utf8_nth(ptr noundef %0, ptr noundef %1, ptr noundef nonnull captures(none) %2) unnamed_addr #12 {
  %4 = load i64, ptr %2, align 8, !tbaa !26
  %5 = ptrtoint ptr %1 to i64
  %6 = ptrtoint ptr %0 to i64
  %7 = sub i64 %5, %6
  %8 = icmp sgt i64 %7, 16
  %9 = icmp sgt i64 %4, 16
  %or.cond = select i1 %8, i1 %9, i1 false
  br i1 %or.cond, label %10, label %.loopexit

10:                                               ; preds = %3
  %11 = add i64 %6, 7
  %12 = and i64 %11, -8
  %13 = inttoptr i64 %12 to ptr
  %14 = and i64 %5, -8
  %15 = inttoptr i64 %14 to ptr
  %16 = icmp ult ptr %0, %13
  br i1 %16, label %.lr.ph.preheader, label %.preheader.preheader

.lr.ph.preheader:                                 ; preds = %10
  %17 = sub i64 %12, %6
  %scevgep = getelementptr i8, ptr %0, i64 %17
  br label %.lr.ph

.lr.ph:                                           ; preds = %.lr.ph.preheader, %.lr.ph
  %.136 = phi ptr [ %20, %.lr.ph ], [ %0, %.lr.ph.preheader ]
  %.12835 = phi i64 [ %spec.select, %.lr.ph ], [ %4, %.lr.ph.preheader ]
  %18 = load i8, ptr %.136, align 1, !tbaa !19
  %.not33 = icmp sgt i8 %18, -65
  %19 = sext i1 %.not33 to i64
  %spec.select = add i64 %.12835, %19
  %20 = getelementptr i8, ptr %.136, i64 1
  %exitcond.not = icmp eq ptr %20, %scevgep
  br i1 %exitcond.not, label %.preheader.preheader, label %.lr.ph, !llvm.loop !220

.preheader.preheader:                             ; preds = %.lr.ph, %10
  %.3.ph = phi i64 [ %4, %10 ], [ %spec.select, %.lr.ph ]
  br label %.preheader

.preheader:                                       ; preds = %.preheader.preheader, %.preheader
  %.030 = phi ptr [ %34, %.preheader ], [ %13, %.preheader.preheader ]
  %.3 = phi i64 [ %33, %.preheader ], [ %.3.ph, %.preheader.preheader ]
  %.030.val = load i64, ptr %.030, align 8, !tbaa !26
  %21 = lshr i64 %.030.val, 6
  %22 = xor i64 %.030.val, -1
  %23 = lshr i64 %22, 7
  %24 = or i64 %21, %23
  %25 = and i64 %24, 72340172838076673
  %26 = lshr i64 %25, 8
  %27 = add nuw nsw i64 %26, %25
  %28 = lshr i64 %27, 16
  %29 = add nuw nsw i64 %28, %27
  %30 = lshr i64 %29, 32
  %31 = add nuw nsw i64 %30, %29
  %32 = and i64 %31, 15
  %33 = sub i64 %.3, %32
  %34 = getelementptr i8, ptr %.030, i64 8
  %35 = icmp ult ptr %34, %15
  %36 = icmp sgt i64 %33, 7
  %37 = select i1 %35, i1 %36, i1 false
  br i1 %37, label %.preheader, label %.loopexit.loopexit, !llvm.loop !221

.loopexit.loopexit:                               ; preds = %.preheader
  %.pre = ptrtoint ptr %34 to i64
  br label %.loopexit

.loopexit:                                        ; preds = %.loopexit.loopexit, %3
  %.046.pre-phi = phi i64 [ %.pre, %.loopexit.loopexit ], [ %6, %3 ]
  %.027 = phi i64 [ %33, %.loopexit.loopexit ], [ %4, %3 ]
  %.0 = phi ptr [ %34, %.loopexit.loopexit ], [ %0, %3 ]
  %38 = icmp ult ptr %.0, %1
  br i1 %38, label %.lr.ph39.preheader, label %._crit_edge

.lr.ph39.preheader:                               ; preds = %.loopexit
  %39 = sub i64 %5, %.046.pre-phi
  %scevgep47 = getelementptr i8, ptr %.0, i64 %39
  br label %.lr.ph39

.lr.ph39:                                         ; preds = %.lr.ph39.preheader, %45
  %.238 = phi ptr [ %46, %45 ], [ %.0, %.lr.ph39.preheader ]
  %.437 = phi i64 [ %.5, %45 ], [ %.027, %.lr.ph39.preheader ]
  %40 = load i8, ptr %.238, align 1, !tbaa !19
  %.not = icmp slt i8 %40, -64
  br i1 %.not, label %45, label %41

41:                                               ; preds = %.lr.ph39
  %42 = icmp eq i64 %.437, 0
  br i1 %42, label %._crit_edge, label %43

43:                                               ; preds = %41
  %44 = add i64 %.437, -1
  br label %45

45:                                               ; preds = %43, %.lr.ph39
  %.5 = phi i64 [ %44, %43 ], [ %.437, %.lr.ph39 ]
  %46 = getelementptr i8, ptr %.238, i64 1
  %exitcond48.not = icmp eq ptr %46, %scevgep47
  br i1 %exitcond48.not, label %._crit_edge, label %.lr.ph39, !llvm.loop !222

._crit_edge:                                      ; preds = %45, %41, %.loopexit
  %.4.lcssa = phi i64 [ %.027, %.loopexit ], [ 0, %41 ], [ %.5, %45 ]
  %.2.lcssa = phi ptr [ %.0, %.loopexit ], [ %.238, %41 ], [ %scevgep47, %45 ]
  store i64 %.4.lcssa, ptr %2, align 8, !tbaa !26
  ret ptr %.2.lcssa
}